(lp1
(lp2
I1
aI0
aI0
aI0
aa(lp3
I1
aI0
aI0
aI0
aa(lp4
I5
aI0
aI0
aI0
aa(lp5
I3
aI0
aI0
aI0
aa(lp6
I1
aI0
aI0
aI0
aa(lp7
I2
aI0
aI0
aI0
aa(lp8
I4
aI0
aI0
aI0
aa(lp9
I3
aI0
aI0
aI0
aa(lp10
I5
aI0
aI0
aI0
aa(lp11
I2
aI0
aI0
aI0
aa(lp12
I2
aI0
aI0
aI0
aa(lp13
I5
aI0
aI0
aI0
aa(lp14
I5
aI0
aI0
aI0
aa(lp15
I2
aI0
aI0
aI0
aa(lp16
I2
aI0
aI0
aI0
aa(lp17
I3
aI0
aI0
aI0
aa(lp18
I3
aI0
aI0
aI0
aa(lp19
I4
aI0
aI0
aI0
aa(lp20
I6
aI0
aI0
aI0
aa(lp21
I5
aI0
aI0
aI0
aa(lp22
I3
aI0
aI0
aI0
aa(lp23
I3
aI0
aI0
aI0
aa(lp24
I5
aI0
aI0
aI0
aa(lp25
I2
aI0
aI0
aI0
aa(lp26
I3
aI0
aI0
aI0
aa(lp27
I2
aI0
aI0
aI0
aa(lp28
I3
aI0
aI0
aI0
aa(lp29
I4
aI0
aI0
aI0
aa(lp30
I5
aI0
aI0
aI0
aa(lp31
I6
aI0
aI0
aI0
aa(lp32
I5
aI0
aI0
aI0
aa(lp33
I2
aI0
aI0
aI0
aa(lp34
I7
aI0
aI0
aI0
aa(lp35
I2
aI0
aI0
aI0
aa(lp36
I6
aI0
aI0
aI0
aa(lp37
I2
aI0
aI0
aI0
aa(lp38
I6
aI0
aI0
aI0
aa(lp39
I4
aI0
aI0
aI0
aa(lp40
I2
aI0
aI0
aI0
aa(lp41
I4
aI0
aI0
aI0
aa(lp42
I1
aI0
aI0
aI0
aa(lp43
I3
aI0
aI0
aI0
aa(lp44
I4
aI0
aI0
aI0
aa(lp45
I1
aI0
aI0
aI0
aa(lp46
I4
aI0
aI0
aI0
aa(lp47
I3
aI0
aI0
aI0
aa(lp48
I4
aI0
aI0
aI0
aa(lp49
I3
aI0
aI0
aI0
aa(lp50
I2
aI0
aI0
aI0
aa(lp51
I6
aI0
aI0
aI0
aa(lp52
I2
aI0
aI0
aI0
aa(lp53
I5
aI0
aI0
aI0
aa(lp54
I1
aI0
aI0
aI0
aa(lp55
I3
aI0
aI0
aI0
aa(lp56
I5
aI0
aI0
aI0
aa(lp57
I1
aI0
aI0
aI0
aa(lp58
I7
aI0
aI0
aI0
aa(lp59
I3
aI0
aI0
aI0
aa(lp60
I4
aI0
aI0
aI0
aa(lp61
I3
aI0
aI0
aI0
aa(lp62
I1
aI0
aI0
aI0
aa(lp63
I4
aI0
aI0
aI0
aa(lp64
I7
aI0
aI0
aI0
aa(lp65
I1
aI0
aI0
aI0
aa(lp66
I3
aI0
aI0
aI0
aa(lp67
I1
aI0
aI0
aI0
aa(lp68
I4
aI0
aI0
aI0
aa(lp69
I1
aI0
aI0
aI0
aa(lp70
I4
aI0
aI0
aI0
aa(lp71
I6
aI0
aI0
aI0
aa(lp72
I2
aI0
aI0
aI0
aa(lp73
I2
aI0
aI0
aI0
aa(lp74
I7
aI0
aI0
aI0
aa(lp75
I2
aI0
aI0
aI0
aa(lp76
I4
aI0
aI0
aI0
aa(lp77
I1
aI0
aI0
aI0
aa(lp78
I5
aI0
aI0
aI0
aa(lp79
I2
aI0
aI0
aI0
aa(lp80
I1
aI0
aI0
aI0
aa(lp81
I4
aI0
aI0
aI0
aa(lp82
I3
aI0
aI0
aI0
aa(lp83
I4
aI0
aI0
aI0
aa(lp84
I3
aI0
aI0
aI0
aa(lp85
I5
aI0
aI0
aI0
aa(lp86
I3
aI0
aI0
aI0
aa(lp87
I5
aI0
aI0
aI0
aa(lp88
I3
aI0
aI0
aI0
aa(lp89
I3
aI0
aI0
aI0
aa(lp90
I4
aI0
aI0
aI0
aa(lp91
I4
aI0
aI0
aI0
aa(lp92
I3
aI0
aI0
aI0
aa(lp93
I5
aI0
aI0
aI0
aa(lp94
I1
aI0
aI0
aI0
aa(lp95
I5
aI0
aI0
aI0
aa(lp96
I3
aI0
aI0
aI0
aa(lp97
I4
aI0
aI0
aI0
aa(lp98
I2
aI0
aI0
aI0
aa(lp99
I1
aI0
aI0
aI0
aa(lp100
I1
aI0
aI0
aI0
aa(lp101
I6
aI0
aI0
aI0
aa(lp102
I6
aI0
aI0
aI0
aa(lp103
I2
aI0
aI0
aI0
aa(lp104
I4
aI0
aI0
aI0
aa(lp105
I2
aI0
aI0
aI0
aa(lp106
I6
aI0
aI0
aI0
aa(lp107
I2
aI0
aI0
aI0
aa(lp108
I2
aI0
aI0
aI0
aa(lp109
I5
aI0
aI0
aI0
aa(lp110
I3
aI0
aI0
aI0
aa(lp111
I2
aI0
aI0
aI0
aa(lp112
I1
aI0
aI0
aI0
aa(lp113
I4
aI0
aI0
aI0
aa(lp114
I4
aI0
aI0
aI0
aa(lp115
I2
aI0
aI0
aI0
aa(lp116
I1
aI0
aI0
aI0
aa(lp117
I3
aI0
aI0
aI0
aa(lp118
I4
aI0
aI0
aI0
aa(lp119
I3
aI0
aI0
aI0
aa(lp120
I5
aI0
aI0
aI0
aa(lp121
I7
aI0
aI0
aI0
aa(lp122
I5
aI0
aI0
aI0
aa(lp123
I3
aI0
aI0
aI0
aa(lp124
I4
aI0
aI0
aI0
aa(lp125
I1
aI0
aI0
aI0
aa(lp126
I2
aI0
aI0
aI0
aa(lp127
I5
aI0
aI0
aI0
aa(lp128
I7
aI0
aI0
aI0
aa(lp129
I5
aI0
aI0
aI0
aa(lp130
I4
aI0
aI0
aI0
aa(lp131
I1
aI0
aI0
aI0
aa(lp132
I1
aI0
aI0
aI0
aa(lp133
I3
aI0
aI0
aI0
aa(lp134
I2
aI0
aI0
aI0
aa(lp135
I3
aI0
aI0
aI0
aa(lp136
I4
aI0
aI0
aI0
aa(lp137
I3
aI0
aI0
aI0
aa(lp138
I3
aI0
aI0
aI0
aa(lp139
I4
aI0
aI0
aI0
aa(lp140
I6
aI0
aI0
aI0
aa(lp141
I4
aI0
aI0
aI0
aa(lp142
I3
aI0
aI0
aI0
aa(lp143
I3
aI0
aI0
aI0
aa(lp144
I6
aI0
aI0
aI0
aa(lp145
I1
aI0
aI0
aI0
aa(lp146
I4
aI0
aI0
aI0
aa(lp147
I4
aI0
aI0
aI0
aa(lp148
I4
aI0
aI0
aI0
aa(lp149
I5
aI0
aI0
aI0
aa(lp150
I2
aI0
aI0
aI0
aa(lp151
I1
aI0
aI0
aI0
aa(lp152
I6
aI0
aI0
aI0
aa(lp153
I4
aI0
aI0
aI0
aa(lp154
I4
aI0
aI0
aI0
aa(lp155
I6
aI0
aI0
aI0
aa(lp156
I1
aI0
aI0
aI0
aa(lp157
I5
aI0
aI0
aI0
aa(lp158
I3
aI0
aI0
aI0
aa(lp159
I1
aI0
aI0
aI0
aa(lp160
I4
aI0
aI0
aI0
aa(lp161
I1
aI0
aI0
aI0
aa(lp162
I6
aI0
aI0
aI0
aa(lp163
I4
aI0
aI0
aI0
aa(lp164
I3
aI0
aI0
aI0
aa(lp165
I6
aI0
aI0
aI0
aa(lp166
I1
aI0
aI0
aI0
aa(lp167
I5
aI0
aI0
aI0
aa(lp168
I1
aI0
aI0
aI0
aa(lp169
I3
aI0
aI0
aI0
aa(lp170
I6
aI0
aI0
aI0
aa(lp171
I5
aI0
aI0
aI0
aa(lp172
I4
aI0
aI0
aI0
aa(lp173
I5
aI0
aI0
aI0
aa(lp174
I3
aI0
aI0
aI0
aa(lp175
I1
aI0
aI0
aI0
aa(lp176
I1
aI0
aI0
aI0
aa(lp177
I2
aI0
aI0
aI0
aa(lp178
I1
aI0
aI0
aI0
aa(lp179
I3
aI0
aI0
aI0
aa(lp180
I3
aI0
aI0
aI0
aa(lp181
I3
aI0
aI0
aI0
aa(lp182
I2
aI0
aI0
aI0
aa(lp183
I4
aI0
aI0
aI0
aa(lp184
I2
aI0
aI0
aI0
aa(lp185
I1
aI0
aI0
aI0
aa(lp186
I3
aI0
aI0
aI0
aa(lp187
I3
aI0
aI0
aI0
aa(lp188
I3
aI0
aI0
aI0
aa(lp189
I4
aI0
aI0
aI0
aa(lp190
I3
aI0
aI0
aI0
aa(lp191
I2
aI0
aI0
aI0
aa(lp192
I3
aI0
aI0
aI0
aa(lp193
I3
aI0
aI0
aI0
aa(lp194
I4
aI0
aI0
aI0
aa(lp195
I1
aI0
aI0
aI0
aa(lp196
I4
aI0
aI0
aI0
aa(lp197
I3
aI0
aI0
aI0
aa(lp198
I4
aI0
aI0
aI0
aa(lp199
I2
aI0
aI0
aI0
aa(lp200
I5
aI0
aI0
aI0
aa(lp201
I5
aI0
aI0
aI0
aa(lp202
I5
aI0
aI0
aI0
aa(lp203
I4
aI0
aI0
aI0
aa(lp204
I2
aI0
aI0
aI0
aa(lp205
I1
aI0
aI0
aI0
aa(lp206
I4
aI0
aI0
aI0
aa(lp207
I4
aI0
aI0
aI0
aa(lp208
I7
aI0
aI0
aI0
aa(lp209
I4
aI0
aI0
aI0
aa(lp210
I4
aI0
aI0
aI0
aa(lp211
I4
aI0
aI0
aI0
aa(lp212
I4
aI0
aI0
aI0
aa(lp213
I4
aI0
aI0
aI0
aa(lp214
I3
aI0
aI0
aI0
aa(lp215
I6
aI0
aI0
aI0
aa(lp216
I3
aI0
aI0
aI0
aa(lp217
I2
aI0
aI0
aI0
aa(lp218
I1
aI0
aI0
aI0
aa(lp219
I2
aI0
aI0
aI0
aa(lp220
I3
aI0
aI0
aI0
aa(lp221
I5
aI0
aI0
aI0
aa(lp222
I3
aI0
aI0
aI0
aa(lp223
I3
aI0
aI0
aI0
aa(lp224
I2
aI0
aI0
aI0
aa(lp225
I1
aI0
aI0
aI0
aa(lp226
I2
aI0
aI0
aI0
aa(lp227
I4
aI0
aI0
aI0
aa(lp228
I4
aI0
aI0
aI0
aa(lp229
I3
aI0
aI0
aI0
aa(lp230
I1
aI0
aI0
aI0
aa(lp231
I5
aI0
aI0
aI0
aa(lp232
I4
aI0
aI0
aI0
aa(lp233
I4
aI0
aI0
aI0
aa(lp234
I1
aI0
aI0
aI0
aa(lp235
I7
aI0
aI0
aI0
aa(lp236
I3
aI0
aI0
aI0
aa(lp237
I3
aI0
aI0
aI0
aa(lp238
I1
aI0
aI0
aI0
aa(lp239
I2
aI0
aI0
aI0
aa(lp240
I4
aI0
aI0
aI0
aa(lp241
I1
aI0
aI0
aI0
aa(lp242
I3
aI0
aI0
aI0
aa(lp243
I2
aI0
aI0
aI0
aa(lp244
I7
aI0
aI0
aI0
aa(lp245
I3
aI0
aI0
aI0
aa(lp246
I3
aI0
aI0
aI0
aa(lp247
I4
aI0
aI0
aI0
aa(lp248
I1
aI0
aI0
aI0
aa(lp249
I1
aI0
aI0
aI0
aa(lp250
I6
aI0
aI0
aI0
aa(lp251
I6
aI0
aI0
aI0
aa(lp252
I4
aI0
aI0
aI0
aa(lp253
I4
aI0
aI0
aI0
aa(lp254
I3
aI0
aI0
aI0
aa(lp255
I4
aI0
aI0
aI0
aa(lp256
I4
aI0
aI0
aI0
aa(lp257
I7
aI0
aI0
aI0
aa(lp258
I1
aI0
aI0
aI0
aa(lp259
I2
aI0
aI0
aI0
aa(lp260
I1
aI0
aI0
aI0
aa(lp261
I4
aI0
aI0
aI0
aa(lp262
I4
aI0
aI0
aI0
aa(lp263
I2
aI0
aI0
aI0
aa(lp264
I4
aI0
aI0
aI0
aa(lp265
I1
aI0
aI0
aI0
aa.