(lp1
(lp2
I1
aI0
aI0
aI0
aa(lp3
I4
aI0
aI0
aI0
aa(lp4
I3
aI0
aI0
aI0
aa(lp5
I4
aI0
aI0
aI0
aa(lp6
I2
aI0
aI0
aI0
aa(lp7
I3
aI0
aI0
aI0
aa(lp8
I4
aI0
aI0
aI0
aa(lp9
I3
aI0
aI0
aI0
aa(lp10
I3
aI0
aI0
aI0
aa(lp11
I1
aI0
aI0
aI0
aa(lp12
I1
aI0
aI0
aI0
aa(lp13
I2
aI0
aI0
aI0
aa(lp14
I2
aI0
aI0
aI0
aa(lp15
I2
aI0
aI0
aI0
aa(lp16
I2
aI0
aI0
aI0
aa(lp17
I3
aI0
aI0
aI0
aa(lp18
I5
aI0
aI0
aI0
aa(lp19
I3
aI0
aI0
aI0
aa(lp20
I2
aI0
aI0
aI0
aa(lp21
I6
aI0
aI0
aI0
aa(lp22
I2
aI0
aI0
aI0
aa(lp23
I2
aI0
aI0
aI0
aa(lp24
I3
aI0
aI0
aI0
aa(lp25
I4
aI0
aI0
aI0
aa(lp26
I6
aI0
aI0
aI0
aa(lp27
I1
aI0
aI0
aI0
aa(lp28
I3
aI0
aI0
aI0
aa(lp29
I5
aI0
aI0
aI0
aa(lp30
I4
aI0
aI0
aI0
aa(lp31
I2
aI0
aI0
aI0
aa(lp32
I2
aI0
aI0
aI0
aa(lp33
I2
aI0
aI0
aI0
aa(lp34
I2
aI0
aI0
aI0
aa(lp35
I3
aI0
aI0
aI0
aa(lp36
I2
aI0
aI0
aI0
aa(lp37
I5
aI0
aI0
aI0
aa(lp38
I3
aI0
aI0
aI0
aa(lp39
I3
aI0
aI0
aI0
aa(lp40
I7
aI0
aI0
aI0
aa(lp41
I6
aI0
aI0
aI0
aa(lp42
I3
aI0
aI0
aI0
aa(lp43
I3
aI0
aI0
aI0
aa(lp44
I2
aI0
aI0
aI0
aa(lp45
I2
aI0
aI0
aI0
aa(lp46
I2
aI0
aI0
aI0
aa(lp47
I2
aI0
aI0
aI0
aa(lp48
I2
aI0
aI0
aI0
aa(lp49
I2
aI0
aI0
aI0
aa(lp50
I2
aI0
aI0
aI0
aa(lp51
I6
aI0
aI0
aI0
aa(lp52
I3
aI0
aI0
aI0
aa(lp53
I2
aI0
aI0
aI0
aa(lp54
I3
aI0
aI0
aI0
aa(lp55
I4
aI0
aI0
aI0
aa(lp56
I3
aI0
aI0
aI0
aa(lp57
I4
aI0
aI0
aI0
aa(lp58
I4
aI0
aI0
aI0
aa(lp59
I2
aI0
aI0
aI0
aa(lp60
I3
aI0
aI0
aI0
aa(lp61
I5
aI0
aI0
aI0
aa(lp62
I2
aI0
aI0
aI0
aa(lp63
I2
aI0
aI0
aI0
aa(lp64
I1
aI0
aI0
aI0
aa(lp65
I3
aI0
aI0
aI0
aa(lp66
I3
aI0
aI0
aI0
aa(lp67
I6
aI0
aI0
aI0
aa(lp68
I7
aI0
aI0
aI0
aa(lp69
I1
aI0
aI0
aI0
aa(lp70
I4
aI0
aI0
aI0
aa(lp71
I4
aI0
aI0
aI0
aa(lp72
I6
aI0
aI0
aI0
aa(lp73
I2
aI0
aI0
aI0
aa(lp74
I2
aI0
aI0
aI0
aa(lp75
I1
aI0
aI0
aI0
aa(lp76
I4
aI0
aI0
aI0
aa(lp77
I3
aI0
aI0
aI0
aa(lp78
I1
aI0
aI0
aI0
aa(lp79
I1
aI0
aI0
aI0
aa(lp80
I4
aI0
aI0
aI0
aa(lp81
I2
aI0
aI0
aI0
aa(lp82
I4
aI0
aI0
aI0
aa(lp83
I2
aI0
aI0
aI0
aa(lp84
I2
aI0
aI0
aI0
aa(lp85
I3
aI0
aI0
aI0
aa(lp86
I2
aI0
aI0
aI0
aa(lp87
I4
aI0
aI0
aI0
aa(lp88
I3
aI0
aI0
aI0
aa(lp89
I5
aI0
aI0
aI0
aa(lp90
I2
aI0
aI0
aI0
aa(lp91
I3
aI0
aI0
aI0
aa(lp92
I2
aI0
aI0
aI0
aa(lp93
I5
aI0
aI0
aI0
aa(lp94
I3
aI0
aI0
aI0
aa(lp95
I2
aI0
aI0
aI0
aa(lp96
I3
aI0
aI0
aI0
aa(lp97
I2
aI0
aI0
aI0
aa(lp98
I4
aI0
aI0
aI0
aa(lp99
I3
aI0
aI0
aI0
aa(lp100
I2
aI0
aI0
aI0
aa(lp101
I2
aI0
aI0
aI0
aa(lp102
I2
aI0
aI0
aI0
aa(lp103
I5
aI0
aI0
aI0
aa(lp104
I3
aI0
aI0
aI0
aa(lp105
I2
aI0
aI0
aI0
aa(lp106
I2
aI0
aI0
aI0
aa(lp107
I4
aI0
aI0
aI0
aa(lp108
I1
aI0
aI0
aI0
aa(lp109
I1
aI0
aI0
aI0
aa(lp110
I5
aI0
aI0
aI0
aa(lp111
I2
aI0
aI0
aI0
aa(lp112
I5
aI0
aI0
aI0
aa(lp113
I1
aI0
aI0
aI0
aa(lp114
I1
aI0
aI0
aI0
aa(lp115
I2
aI0
aI0
aI0
aa(lp116
I2
aI0
aI0
aI0
aa(lp117
I1
aI0
aI0
aI0
aa(lp118
I5
aI0
aI0
aI0
aa(lp119
I7
aI0
aI0
aI0
aa(lp120
I5
aI0
aI0
aI0
aa(lp121
I6
aI0
aI0
aI0
aa(lp122
I3
aI0
aI0
aI0
aa(lp123
I2
aI0
aI0
aI0
aa(lp124
I1
aI0
aI0
aI0
aa(lp125
I1
aI0
aI0
aI0
aa(lp126
I4
aI0
aI0
aI0
aa(lp127
I2
aI0
aI0
aI0
aa(lp128
I2
aI0
aI0
aI0
aa(lp129
I3
aI0
aI0
aI0
aa(lp130
I2
aI0
aI0
aI0
aa(lp131
I4
aI0
aI0
aI0
aa(lp132
I2
aI0
aI0
aI0
aa(lp133
I4
aI0
aI0
aI0
aa(lp134
I3
aI0
aI0
aI0
aa(lp135
I2
aI0
aI0
aI0
aa(lp136
I2
aI0
aI0
aI0
aa.