(lp1
(lp2
I2
aI0
aI0
aI0
aa(lp3
I7
aI0
aI0
aI0
aa(lp4
I4
aI0
aI0
aI0
aa(lp5
I1
aI0
aI0
aI0
aa(lp6
I5
aI0
aI0
aI0
aa(lp7
I1
aI0
aI0
aI0
aa(lp8
I7
aI0
aI0
aI0
aa(lp9
I1
aI0
aI0
aI0
aa(lp10
I1
aI0
aI0
aI0
aa(lp11
I2
aI0
aI0
aI0
aa(lp12
I1
aI0
aI0
aI0
aa(lp13
I3
aI0
aI0
aI0
aa(lp14
I4
aI0
aI0
aI0
aa(lp15
I4
aI0
aI0
aI0
aa(lp16
I2
aI0
aI0
aI0
aa(lp17
I8
aI0
aI0
aI0
aa(lp18
I3
aI0
aI0
aI0
aa(lp19
I4
aI0
aI0
aI0
aa(lp20
I3
aI0
aI0
aI0
aa(lp21
I6
aI0
aI0
aI0
aa(lp22
I2
aI0
aI0
aI0
aa(lp23
I1
aI0
aI0
aI0
aa(lp24
I3
aI0
aI0
aI0
aa(lp25
I5
aI0
aI0
aI0
aa(lp26
I2
aI0
aI0
aI0
aa(lp27
I6
aI0
aI0
aI0
aa(lp28
I1
aI0
aI0
aI0
aa(lp29
I4
aI0
aI0
aI0
aa(lp30
I2
aI0
aI0
aI0
aa(lp31
I4
aI0
aI0
aI0
aa(lp32
I2
aI0
aI0
aI0
aa(lp33
I2
aI0
aI0
aI0
aa(lp34
I3
aI0
aI0
aI0
aa(lp35
I1
aI0
aI0
aI0
aa(lp36
I4
aI0
aI0
aI0
aa(lp37
I7
aI0
aI0
aI0
aa(lp38
I2
aI0
aI0
aI0
aa(lp39
I3
aI0
aI0
aI0
aa(lp40
I2
aI0
aI0
aI0
aa(lp41
I3
aI0
aI0
aI0
aa(lp42
I4
aI0
aI0
aI0
aa(lp43
I2
aI0
aI0
aI0
aa(lp44
I8
aI0
aI0
aI0
aa(lp45
I4
aI0
aI0
aI0
aa(lp46
I1
aI0
aI0
aI0
aa(lp47
I8
aI0
aI0
aI0
aa(lp48
I6
aI0
aI0
aI0
aa(lp49
I2
aI0
aI0
aI0
aa(lp50
I1
aI0
aI0
aI0
aa(lp51
I1
aI0
aI0
aI0
aa(lp52
I7
aI0
aI0
aI0
aa(lp53
I2
aI0
aI0
aI0
aa(lp54
I3
aI0
aI0
aI0
aa(lp55
I2
aI0
aI0
aI0
aa(lp56
I6
aI0
aI0
aI0
aa(lp57
I6
aI0
aI0
aI0
aa(lp58
I5
aI0
aI0
aI0
aa(lp59
I5
aI0
aI0
aI0
aa(lp60
I9
aI0
aI0
aI0
aa(lp61
I1
aI0
aI0
aI0
aa(lp62
I3
aI0
aI0
aI0
aa(lp63
I3
aI0
aI0
aI0
aa(lp64
I5
aI0
aI0
aI0
aa(lp65
I3
aI0
aI0
aI0
aa(lp66
I1
aI0
aI0
aI0
aa(lp67
I4
aI0
aI0
aI0
aa(lp68
I3
aI0
aI0
aI0
aa(lp69
I7
aI0
aI0
aI0
aa(lp70
I7
aI0
aI0
aI0
aa(lp71
I3
aI0
aI0
aI0
aa(lp72
I2
aI0
aI0
aI0
aa(lp73
I7
aI0
aI0
aI0
aa(lp74
I2
aI0
aI0
aI0
aa(lp75
I2
aI0
aI0
aI0
aa(lp76
I6
aI0
aI0
aI0
aa(lp77
I1
aI0
aI0
aI0
aa(lp78
I1
aI0
aI0
aI0
aa(lp79
I1
aI0
aI0
aI0
aa(lp80
I3
aI0
aI0
aI0
aa(lp81
I5
aI0
aI0
aI0
aa(lp82
I5
aI0
aI0
aI0
aa(lp83
I2
aI0
aI0
aI0
aa(lp84
I6
aI0
aI0
aI0
aa(lp85
I6
aI0
aI0
aI0
aa(lp86
I4
aI0
aI0
aI0
aa(lp87
I2
aI0
aI0
aI0
aa(lp88
I1
aI0
aI0
aI0
aa(lp89
I1
aI0
aI0
aI0
aa(lp90
I7
aI0
aI0
aI0
aa(lp91
I3
aI0
aI0
aI0
aa(lp92
I1
aI0
aI0
aI0
aa(lp93
I5
aI0
aI0
aI0
aa(lp94
I4
aI0
aI0
aI0
aa(lp95
I6
aI0
aI0
aI0
aa(lp96
I3
aI0
aI0
aI0
aa(lp97
I6
aI0
aI0
aI0
aa(lp98
I1
aI0
aI0
aI0
aa(lp99
I4
aI0
aI0
aI0
aa(lp100
I4
aI0
aI0
aI0
aa(lp101
I3
aI0
aI0
aI0
aa(lp102
I2
aI0
aI0
aI0
aa(lp103
I4
aI0
aI0
aI0
aa(lp104
I1
aI0
aI0
aI0
aa(lp105
I4
aI0
aI0
aI0
aa(lp106
I2
aI0
aI0
aI0
aa(lp107
I5
aI0
aI0
aI0
aa(lp108
I1
aI0
aI0
aI0
aa(lp109
I2
aI0
aI0
aI0
aa(lp110
I3
aI0
aI0
aI0
aa(lp111
I2
aI0
aI0
aI0
aa(lp112
I7
aI0
aI0
aI0
aa(lp113
I2
aI0
aI0
aI0
aa(lp114
I5
aI0
aI0
aI0
aa(lp115
I7
aI0
aI0
aI0
aa(lp116
I2
aI0
aI0
aI0
aa(lp117
I2
aI0
aI0
aI0
aa(lp118
I4
aI0
aI0
aI0
aa(lp119
I3
aI0
aI0
aI0
aa(lp120
I5
aI0
aI0
aI0
aa(lp121
I3
aI0
aI0
aI0
aa(lp122
I1
aI0
aI0
aI0
aa(lp123
I3
aI0
aI0
aI0
aa(lp124
I6
aI0
aI0
aI0
aa(lp125
I3
aI0
aI0
aI0
aa(lp126
I1
aI0
aI0
aI0
aa(lp127
I6
aI0
aI0
aI0
aa(lp128
I4
aI0
aI0
aI0
aa(lp129
I2
aI0
aI0
aI0
aa(lp130
I2
aI0
aI0
aI0
aa(lp131
I5
aI0
aI0
aI0
aa(lp132
I1
aI0
aI0
aI0
aa(lp133
I1
aI0
aI0
aI0
aa(lp134
I4
aI0
aI0
aI0
aa(lp135
I2
aI0
aI0
aI0
aa(lp136
I1
aI0
aI0
aI0
aa(lp137
I2
aI0
aI0
aI0
aa(lp138
I2
aI0
aI0
aI0
aa(lp139
I4
aI0
aI0
aI0
aa(lp140
I3
aI0
aI0
aI0
aa(lp141
I2
aI0
aI0
aI0
aa(lp142
I2
aI0
aI0
aI0
aa(lp143
I2
aI0
aI0
aI0
aa(lp144
I4
aI0
aI0
aI0
aa(lp145
I3
aI0
aI0
aI0
aa(lp146
I5
aI0
aI0
aI0
aa(lp147
I2
aI0
aI0
aI0
aa(lp148
I4
aI0
aI0
aI0
aa(lp149
I3
aI0
aI0
aI0
aa(lp150
I1
aI0
aI0
aI0
aa(lp151
I2
aI0
aI0
aI0
aa(lp152
I2
aI0
aI0
aI0
aa(lp153
I7
aI0
aI0
aI0
aa(lp154
I2
aI0
aI0
aI0
aa(lp155
I2
aI0
aI0
aI0
aa(lp156
I2
aI0
aI0
aI0
aa(lp157
I3
aI0
aI0
aI0
aa(lp158
I2
aI0
aI0
aI0
aa(lp159
I5
aI0
aI0
aI0
aa(lp160
I4
aI0
aI0
aI0
aa(lp161
I3
aI0
aI0
aI0
aa(lp162
I5
aI0
aI0
aI0
aa(lp163
I7
aI0
aI0
aI0
aa(lp164
I1
aI0
aI0
aI0
aa(lp165
I4
aI0
aI0
aI0
aa(lp166
I1
aI0
aI0
aI0
aa(lp167
I4
aI0
aI0
aI0
aa(lp168
I3
aI0
aI0
aI0
aa(lp169
I4
aI0
aI0
aI0
aa(lp170
I3
aI0
aI0
aI0
aa(lp171
I3
aI0
aI0
aI0
aa(lp172
I5
aI0
aI0
aI0
aa(lp173
I1
aI0
aI0
aI0
aa(lp174
I4
aI0
aI0
aI0
aa(lp175
I1
aI0
aI0
aI0
aa(lp176
I3
aI0
aI0
aI0
aa(lp177
I4
aI0
aI0
aI0
aa(lp178
I6
aI0
aI0
aI0
aa(lp179
I1
aI0
aI0
aI0
aa(lp180
I4
aI0
aI0
aI0
aa(lp181
I2
aI0
aI0
aI0
aa(lp182
I7
aI0
aI0
aI0
aa(lp183
I2
aI0
aI0
aI0
aa(lp184
I2
aI0
aI0
aI0
aa(lp185
I1
aI0
aI0
aI0
aa(lp186
I3
aI0
aI0
aI0
aa(lp187
I5
aI0
aI0
aI0
aa(lp188
I7
aI0
aI0
aI0
aa(lp189
I1
aI0
aI0
aI0
aa(lp190
I1
aI0
aI0
aI0
aa(lp191
I4
aI0
aI0
aI0
aa(lp192
I5
aI0
aI0
aI0
aa(lp193
I4
aI0
aI0
aI0
aa(lp194
I1
aI0
aI0
aI0
aa(lp195
I2
aI0
aI0
aI0
aa(lp196
I6
aI0
aI0
aI0
aa(lp197
I3
aI0
aI0
aI0
aa(lp198
I2
aI0
aI0
aI0
aa(lp199
I2
aI0
aI0
aI0
aa(lp200
I1
aI0
aI0
aI0
aa(lp201
I5
aI0
aI0
aI0
aa(lp202
I4
aI0
aI0
aI0
aa(lp203
I1
aI0
aI0
aI0
aa(lp204
I2
aI0
aI0
aI0
aa(lp205
I3
aI0
aI0
aI0
aa(lp206
I2
aI0
aI0
aI0
aa(lp207
I4
aI0
aI0
aI0
aa(lp208
I2
aI0
aI0
aI0
aa(lp209
I4
aI0
aI0
aI0
aa(lp210
I4
aI0
aI0
aI0
aa(lp211
I7
aI0
aI0
aI0
aa(lp212
I3
aI0
aI0
aI0
aa(lp213
I5
aI0
aI0
aI0
aa(lp214
I3
aI0
aI0
aI0
aa(lp215
I4
aI0
aI0
aI0
aa(lp216
I2
aI0
aI0
aI0
aa(lp217
I4
aI0
aI0
aI0
aa(lp218
I4
aI0
aI0
aI0
aa(lp219
I3
aI0
aI0
aI0
aa(lp220
I1
aI0
aI0
aI0
aa(lp221
I2
aI0
aI0
aI0
aa(lp222
I6
aI0
aI0
aI0
aa(lp223
I4
aI0
aI0
aI0
aa(lp224
I2
aI0
aI0
aI0
aa(lp225
I1
aI0
aI0
aI0
aa(lp226
I3
aI0
aI0
aI0
aa(lp227
I4
aI0
aI0
aI0
aa(lp228
I3
aI0
aI0
aI0
aa(lp229
I3
aI0
aI0
aI0
aa(lp230
I4
aI0
aI0
aI0
aa(lp231
I1
aI0
aI0
aI0
aa(lp232
I4
aI0
aI0
aI0
aa(lp233
I3
aI0
aI0
aI0
aa(lp234
I2
aI0
aI0
aI0
aa(lp235
I6
aI0
aI0
aI0
aa(lp236
I8
aI0
aI0
aI0
aa(lp237
I1
aI0
aI0
aI0
aa(lp238
I4
aI0
aI0
aI0
aa(lp239
I3
aI0
aI0
aI0
aa(lp240
I3
aI0
aI0
aI0
aa(lp241
I4
aI0
aI0
aI0
aa(lp242
I2
aI0
aI0
aI0
aa(lp243
I7
aI0
aI0
aI0
aa(lp244
I5
aI0
aI0
aI0
aa(lp245
I5
aI0
aI0
aI0
aa(lp246
I3
aI0
aI0
aI0
aa(lp247
I6
aI0
aI0
aI0
aa(lp248
I3
aI0
aI0
aI0
aa(lp249
I1
aI0
aI0
aI0
aa(lp250
I7
aI0
aI0
aI0
aa(lp251
I3
aI0
aI0
aI0
aa(lp252
I1
aI0
aI0
aI0
aa(lp253
I3
aI0
aI0
aI0
aa(lp254
I3
aI0
aI0
aI0
aa(lp255
I1
aI0
aI0
aI0
aa(lp256
I4
aI0
aI0
aI0
aa(lp257
I1
aI0
aI0
aI0
aa(lp258
I2
aI0
aI0
aI0
aa(lp259
I3
aI0
aI0
aI0
aa(lp260
I1
aI0
aI0
aI0
aa(lp261
I6
aI0
aI0
aI0
aa(lp262
I5
aI0
aI0
aI0
aa(lp263
I4
aI0
aI0
aI0
aa(lp264
I1
aI0
aI0
aI0
aa(lp265
I4
aI0
aI0
aI0
aa(lp266
I2
aI0
aI0
aI0
aa(lp267
I4
aI0
aI0
aI0
aa(lp268
I4
aI0
aI0
aI0
aa(lp269
I3
aI0
aI0
aI0
aa(lp270
I1
aI0
aI0
aI0
aa(lp271
I2
aI0
aI0
aI0
aa(lp272
I4
aI0
aI0
aI0
aa(lp273
I1
aI0
aI0
aI0
aa(lp274
I7
aI0
aI0
aI0
aa(lp275
I5
aI0
aI0
aI0
aa(lp276
I7
aI0
aI0
aI0
aa(lp277
I3
aI0
aI0
aI0
aa(lp278
I2
aI0
aI0
aI0
aa(lp279
I3
aI0
aI0
aI0
aa(lp280
I1
aI0
aI0
aI0
aa(lp281
I4
aI0
aI0
aI0
aa(lp282
I1
aI0
aI0
aI0
aa(lp283
I6
aI0
aI0
aI0
aa(lp284
I2
aI0
aI0
aI0
aa(lp285
I2
aI0
aI0
aI0
aa(lp286
I1
aI0
aI0
aI0
aa(lp287
I2
aI0
aI0
aI0
aa(lp288
I6
aI0
aI0
aI0
aa(lp289
I2
aI0
aI0
aI0
aa(lp290
I3
aI0
aI0
aI0
aa(lp291
I1
aI0
aI0
aI0
aa(lp292
I3
aI0
aI0
aI0
aa(lp293
I7
aI0
aI0
aI0
aa(lp294
I1
aI0
aI0
aI0
aa(lp295
I2
aI0
aI0
aI0
aa(lp296
I4
aI0
aI0
aI0
aa(lp297
I2
aI0
aI0
aI0
aa(lp298
I2
aI0
aI0
aI0
aa(lp299
I6
aI0
aI0
aI0
aa(lp300
I9
aI0
aI0
aI0
aa(lp301
I2
aI0
aI0
aI0
aa(lp302
I9
aI0
aI0
aI0
aa(lp303
I4
aI0
aI0
aI0
aa(lp304
I7
aI0
aI0
aI0
aa(lp305
I1
aI0
aI0
aI0
aa(lp306
I1
aI0
aI0
aI0
aa(lp307
I5
aI0
aI0
aI0
aa(lp308
I2
aI0
aI0
aI0
aa(lp309
I1
aI0
aI0
aI0
aa(lp310
I8
aI0
aI0
aI0
aa(lp311
I7
aI0
aI0
aI0
aa(lp312
I2
aI0
aI0
aI0
aa(lp313
I4
aI0
aI0
aI0
aa(lp314
I2
aI0
aI0
aI0
aa(lp315
I2
aI0
aI0
aI0
aa(lp316
I3
aI0
aI0
aI0
aa(lp317
I4
aI0
aI0
aI0
aa(lp318
I3
aI0
aI0
aI0
aa(lp319
I3
aI0
aI0
aI0
aa(lp320
I4
aI0
aI0
aI0
aa(lp321
I5
aI0
aI0
aI0
aa(lp322
I1
aI0
aI0
aI0
aa(lp323
I3
aI0
aI0
aI0
aa(lp324
I6
aI0
aI0
aI0
aa(lp325
I2
aI0
aI0
aI0
aa(lp326
I2
aI0
aI0
aI0
aa(lp327
I2
aI0
aI0
aI0
aa(lp328
I6
aI0
aI0
aI0
aa(lp329
I3
aI0
aI0
aI0
aa(lp330
I8
aI0
aI0
aI0
aa(lp331
I2
aI0
aI0
aI0
aa(lp332
I4
aI0
aI0
aI0
aa(lp333
I12
aI0
aI0
aI0
aa(lp334
I2
aI0
aI0
aI0
aa(lp335
I4
aI0
aI0
aI0
aa(lp336
I1
aI0
aI0
aI0
aa(lp337
I2
aI0
aI0
aI0
aa(lp338
I7
aI0
aI0
aI0
aa(lp339
I5
aI0
aI0
aI0
aa(lp340
I4
aI0
aI0
aI0
aa(lp341
I1
aI0
aI0
aI0
aa(lp342
I2
aI0
aI0
aI0
aa(lp343
I4
aI0
aI0
aI0
aa(lp344
I1
aI0
aI0
aI0
aa(lp345
I3
aI0
aI0
aI0
aa(lp346
I4
aI0
aI0
aI0
aa(lp347
I4
aI0
aI0
aI0
aa(lp348
I6
aI0
aI0
aI0
aa(lp349
I5
aI0
aI0
aI0
aa(lp350
I5
aI0
aI0
aI0
aa(lp351
I5
aI0
aI0
aI0
aa(lp352
I1
aI0
aI0
aI0
aa(lp353
I5
aI0
aI0
aI0
aa(lp354
I5
aI0
aI0
aI0
aa(lp355
I1
aI0
aI0
aI0
aa(lp356
I1
aI0
aI0
aI0
aa(lp357
I5
aI0
aI0
aI0
aa(lp358
I4
aI0
aI0
aI0
aa(lp359
I3
aI0
aI0
aI0
aa(lp360
I2
aI0
aI0
aI0
aa(lp361
I3
aI0
aI0
aI0
aa(lp362
I6
aI0
aI0
aI0
aa(lp363
I1
aI0
aI0
aI0
aa(lp364
I5
aI0
aI0
aI0
aa(lp365
I3
aI0
aI0
aI0
aa(lp366
I2
aI0
aI0
aI0
aa(lp367
I1
aI0
aI0
aI0
aa(lp368
I9
aI0
aI0
aI0
aa(lp369
I2
aI0
aI0
aI0
aa(lp370
I2
aI0
aI0
aI0
aa(lp371
I2
aI0
aI0
aI0
aa(lp372
I5
aI0
aI0
aI0
aa(lp373
I5
aI0
aI0
aI0
aa(lp374
I4
aI0
aI0
aI0
aa(lp375
I5
aI0
aI0
aI0
aa(lp376
I5
aI0
aI0
aI0
aa(lp377
I2
aI0
aI0
aI0
aa(lp378
I8
aI0
aI0
aI0
aa(lp379
I3
aI0
aI0
aI0
aa(lp380
I2
aI0
aI0
aI0
aa(lp381
I10
aI0
aI0
aI0
aa(lp382
I1
aI0
aI0
aI0
aa(lp383
I2
aI0
aI0
aI0
aa(lp384
I2
aI0
aI0
aI0
aa(lp385
I5
aI0
aI0
aI0
aa(lp386
I2
aI0
aI0
aI0
aa(lp387
I5
aI0
aI0
aI0
aa(lp388
I4
aI0
aI0
aI0
aa(lp389
I2
aI0
aI0
aI0
aa(lp390
I1
aI0
aI0
aI0
aa(lp391
I3
aI0
aI0
aI0
aa(lp392
I5
aI0
aI0
aI0
aa(lp393
I1
aI0
aI0
aI0
aa.